target datalayout = "e-m:e-p270:32:32-p271:32:32-p272:64:64-i64:64-i128:128-f80:128-n8:16:32:64-S128"
target triple = "x86_64-unknown-linux-gnu"

@.str.4 = private unnamed_addr constant [2 x i8] c"(\00", align 1
@.str.9 = private unnamed_addr constant [4 x i8] c"(_ \00", align 1
@.str.10 = private unnamed_addr constant [11 x i8] c"__LFSC_TMP\00", align 1
@.str.11 = private unnamed_addr constant [1 x i8] zeroinitializer, align 1

; Function Attrs: mustprogress uwtable
define hidden void @_ZN4cvc58internal5proof19LfscPrintChannelOut12cleanSymbolsERNSt7__cxx1112basic_stringIcSt11char_traitsIcESaIcEEE(ptr noundef nonnull align 8 dereferenceable(32) %s) #4 align 2 {
entry:
  %s.addr = alloca ptr, align 8
  %start_pos = alloca i64, align 8
  store ptr %s, ptr %s.addr, align 8
  store i64 0, ptr %start_pos, align 8
  br label %while.cond

while.cond:                                       ; preds = %while.body, %entry
  %0 = load ptr, ptr %s.addr, align 8
  %1 = load i64, ptr %start_pos, align 8
  %call = call noundef i64 @_ZNKSt7__cxx1112basic_stringIcSt11char_traitsIcESaIcEE4findEPKcm(ptr noundef nonnull align 8 dereferenceable(32) %0, ptr noundef @.str.9, i64 noundef %1) #3
  store i64 %call, ptr %start_pos, align 8
  %cmp = icmp ne i64 %call, -1
  br i1 %cmp, label %while.body, label %while.end

while.body:                                       ; preds = %while.cond
  %2 = load ptr, ptr %s.addr, align 8
  %3 = load i64, ptr %start_pos, align 8
  %call1 = call noundef nonnull align 8 dereferenceable(32) ptr @_ZNSt7__cxx1112basic_stringIcSt11char_traitsIcESaIcEE7replaceEmmPKc(ptr noundef nonnull align 8 dereferenceable(32) %2, i64 noundef %3, i64 noundef 3, ptr noundef @.str.4)
  %4 = load i64, ptr %start_pos, align 8
  %add = add i64 %4, 1
  store i64 %add, ptr %start_pos, align 8
  br label %while.cond, !llvm.loop !6

while.end:                                        ; preds = %while.cond
  store i64 0, ptr %start_pos, align 8
  br label %while.cond2

while.cond2:                                      ; preds = %while.body5, %while.end
  %5 = load ptr, ptr %s.addr, align 8
  %6 = load i64, ptr %start_pos, align 8
  %call3 = call noundef i64 @_ZNKSt7__cxx1112basic_stringIcSt11char_traitsIcESaIcEE4findEPKcm(ptr noundef nonnull align 8 dereferenceable(32) %5, ptr noundef @.str.10, i64 noundef %6) #3
  store i64 %call3, ptr %start_pos, align 8
  %cmp4 = icmp ne i64 %call3, -1
  br i1 %cmp4, label %while.body5, label %while.end7

while.body5:                                      ; preds = %while.cond2
  %7 = load ptr, ptr %s.addr, align 8
  %8 = load i64, ptr %start_pos, align 8
  %call6 = call noundef nonnull align 8 dereferenceable(32) ptr @_ZNSt7__cxx1112basic_stringIcSt11char_traitsIcESaIcEE7replaceEmmPKc(ptr noundef nonnull align 8 dereferenceable(32) %7, i64 noundef %8, i64 noundef 10, ptr noundef @.str.11)
  br label %while.cond2, !llvm.loop !7

while.end7:                                       ; preds = %while.cond2
  ret void
}