; Function Attrs: mustprogress uwtable
define hidden void @_ZN4cvc58internal5proof19LfscPrintChannelOut12cleanSymbolsERNSt7__cxx1112basic_stringIcSt11char_traitsIcESaIcEEE(ptr noundef nonnull align 8 dereferenceable(32) %s) local_unnamed_addr #4 align 2 {
entry:
  %call8 = tail call noundef i64 @_ZNKSt7__cxx1112basic_stringIcSt11char_traitsIcESaIcEE4findEPKcm(ptr noundef nonnull align 8 dereferenceable(32) %s, ptr noundef nonnull @.str.9, i64 noundef 0) #17
  %cmp.not9 = icmp eq i64 %call8, -1
  br i1 %cmp.not9, label %while.cond2.preheader, label %while.body

while.cond2.preheader:                            ; preds = %while.body, %entry
  %call311 = tail call noundef i64 @_ZNKSt7__cxx1112basic_stringIcSt11char_traitsIcESaIcEE4findEPKcm(ptr noundef nonnull align 8 dereferenceable(32) %s, ptr noundef nonnull @.str.10, i64 noundef 0) #17
  %cmp4.not12 = icmp eq i64 %call311, -1
  br i1 %cmp4.not12, label %while.end7, label %while.body5

while.body:                                       ; preds = %entry, %while.body
  %call10 = phi i64 [ %call, %while.body ], [ %call8, %entry ]
  %call1 = tail call noundef nonnull align 8 dereferenceable(32) ptr @_ZNSt7__cxx1112basic_stringIcSt11char_traitsIcESaIcEE7replaceEmmPKc(ptr noundef nonnull align 8 dereferenceable(32) %s, i64 noundef %call10, i64 noundef 3, ptr noundef nonnull @.str.4)
  %add = add nuw i64 %call10, 1
  %call = tail call noundef i64 @_ZNKSt7__cxx1112basic_stringIcSt11char_traitsIcESaIcEE4findEPKcm(ptr noundef nonnull align 8 dereferenceable(32) %s, ptr noundef nonnull @.str.9, i64 noundef %add) #17
  %cmp.not = icmp eq i64 %call, -1
  br i1 %cmp.not, label %while.cond2.preheader, label %while.body, !llvm.loop !7

while.body5:                                      ; preds = %while.cond2.preheader, %while.body5
  %call313 = phi i64 [ %call3, %while.body5 ], [ %call311, %while.cond2.preheader ]
  %call6 = tail call noundef nonnull align 8 dereferenceable(32) ptr @_ZNSt7__cxx1112basic_stringIcSt11char_traitsIcESaIcEE7replaceEmmPKc(ptr noundef nonnull align 8 dereferenceable(32) %s, i64 noundef %call313, i64 noundef 10, ptr noundef nonnull @.str.11)
  %call3 = tail call noundef i64 @_ZNKSt7__cxx1112basic_stringIcSt11char_traitsIcESaIcEE4findEPKcm(ptr noundef nonnull align 8 dereferenceable(32) %s, ptr noundef nonnull @.str.10, i64 noundef %call313) #17
  %cmp4.not = icmp eq i64 %call3, -1
  br i1 %cmp4.not, label %while.end7, label %while.body5, !llvm.loop !8

while.end7:                                       ; preds = %while.body5, %while.cond2.preheader
  ret void
}